; Function Attrs: mustprogress uwtable
define void @_ZN5RarVM4InitEv(ptr nocapture noundef nonnull align 8 dereferenceable(40) %0) local_unnamed_addr #3 align 2 {
  %2 = load ptr, ptr %0, align 8
  %3 = icmp eq ptr %2, null
  br i1 %3, label %4, label %6

4:                                                ; preds = %1
  %5 = tail call noalias noundef nonnull dereferenceable(262148) ptr @_Znam(i64 noundef 262148) #15
  store ptr %5, ptr %0, align 8
  br label %6

6:                                                ; preds = %4, %1
  ret void
}